#include <math.h>
#include <stdio.h>
#include <stdlib.h>
#include <string.h>

void main()
{
	double a,b,c,d,j,s,S;
	scanf("%lf\n%lf\n%lf\n%lf\n%lf",&a,&b,&c,&d,&j);
	j=j/360*3.1415926;
	j=cos(j);
	j=j*j*a*b*c*d;
	s=(a+b+c+d)/2;
	S=(s-a)*(s-b)*(s-c)*(s-d)-j;
	if(S<0) printf("Invalid input");
	else
	{
		S=sqrt(S);
		printf("%.4lf",S);
	}
}